target datalayout = "e-m:e-p270:32:32-p271:32:32-p272:64:64-i64:64-i128:128-f80:128-n8:16:32:64-S128"
target triple = "x86_64-pc-linux-gnu"

; Function Attrs: nounwind uwtable
define hidden void @OGLRenderer_DrawAAParallelogram(ptr noundef %0, ptr noundef %1, float noundef %2, float noundef %3, float noundef %4, float noundef %5, float noundef %6, float noundef %7, float noundef %8, float noundef %9) #0 {
  %11 = alloca ptr, align 8
  %12 = alloca ptr, align 8
  %13 = alloca float, align 4
  %14 = alloca float, align 4
  %15 = alloca float, align 4
  %16 = alloca float, align 4
  %17 = alloca float, align 4
  %18 = alloca float, align 4
  %19 = alloca float, align 4
  %20 = alloca float, align 4
  %21 = alloca float, align 4
  %22 = alloca float, align 4
  %23 = alloca float, align 4
  %24 = alloca float, align 4
  %25 = alloca float, align 4
  %26 = alloca float, align 4
  %27 = alloca float, align 4
  %28 = alloca float, align 4
  %29 = alloca float, align 4
  %30 = alloca float, align 4
  %31 = alloca float, align 4
  %32 = alloca float, align 4
  %33 = alloca float, align 4
  %34 = alloca float, align 4
  %35 = alloca float, align 4
  %36 = alloca float, align 4
  store ptr %0, ptr %11, align 8
  store ptr %1, ptr %12, align 8
  store float %2, ptr %13, align 4
  store float %3, ptr %14, align 4
  store float %4, ptr %15, align 4
  store float %5, ptr %16, align 4
  store float %6, ptr %17, align 4
  store float %7, ptr %18, align 4
  store float %8, ptr %19, align 4
  store float %9, ptr %20, align 4
  %37 = load ptr, ptr %11, align 8
  %38 = icmp eq ptr %37, null
  br i1 %38, label %39, label %40

39:                                               ; preds = %10
  br label %140

40:                                               ; preds = %10
  br label %41

41:                                               ; preds = %40
  br label %42

42:                                               ; preds = %41
  br label %43

43:                                               ; preds = %42
  %44 = load ptr, ptr %12, align 8
  %45 = icmp eq ptr %44, null
  br i1 %45, label %46, label %47

46:                                               ; preds = %43
  br label %140

47:                                               ; preds = %43
  br label %48

48:                                               ; preds = %47
  br label %49

49:                                               ; preds = %48
  br label %50

50:                                               ; preds = %49
  %51 = load float, ptr %15, align 4
  %52 = load float, ptr %19, align 4
  %53 = fmul float %51, %52
  store float %53, ptr %21, align 4
  %54 = load float, ptr %16, align 4
  %55 = load float, ptr %19, align 4
  %56 = fmul float %54, %55
  store float %56, ptr %22, align 4
  %57 = load float, ptr %17, align 4
  %58 = load float, ptr %20, align 4
  %59 = fmul float %57, %58
  store float %59, ptr %23, align 4
  %60 = load float, ptr %18, align 4
  %61 = load float, ptr %20, align 4
  %62 = fmul float %60, %61
  store float %62, ptr %24, align 4
  %63 = load float, ptr %13, align 4
  %64 = load float, ptr %21, align 4
  %65 = load float, ptr %23, align 4
  %66 = fadd float %64, %65
  %67 = fdiv float %66, 2.000000e+00
  %68 = fsub float %63, %67
  store float %68, ptr %25, align 4
  %69 = load float, ptr %14, align 4
  %70 = load float, ptr %22, align 4
  %71 = load float, ptr %24, align 4
  %72 = fadd float %70, %71
  %73 = fdiv float %72, 2.000000e+00
  %74 = fsub float %69, %73
  store float %74, ptr %26, align 4
  %75 = load float, ptr %15, align 4
  %76 = load float, ptr %21, align 4
  %77 = fadd float %75, %76
  store float %77, ptr %27, align 4
  %78 = load float, ptr %16, align 4
  %79 = load float, ptr %22, align 4
  %80 = fadd float %78, %79
  store float %80, ptr %28, align 4
  %81 = load float, ptr %17, align 4
  %82 = load float, ptr %23, align 4
  %83 = fadd float %81, %82
  store float %83, ptr %29, align 4
  %84 = load float, ptr %18, align 4
  %85 = load float, ptr %24, align 4
  %86 = fadd float %84, %85
  store float %86, ptr %30, align 4
  %87 = load float, ptr %19, align 4
  %88 = fcmp olt float %87, 1.000000e+00
  br i1 %88, label %89, label %131

89:                                               ; preds = %50
  %90 = load float, ptr %20, align 4
  %91 = fcmp olt float %90, 1.000000e+00
  br i1 %91, label %92, label %131

92:                                               ; preds = %89
  %93 = load float, ptr %13, align 4
  %94 = load float, ptr %21, align 4
  %95 = load float, ptr %23, align 4
  %96 = fadd float %94, %95
  %97 = fdiv float %96, 2.000000e+00
  %98 = fadd float %93, %97
  store float %98, ptr %31, align 4
  %99 = load float, ptr %14, align 4
  %100 = load float, ptr %22, align 4
  %101 = load float, ptr %24, align 4
  %102 = fadd float %100, %101
  %103 = fdiv float %102, 2.000000e+00
  %104 = fadd float %99, %103
  store float %104, ptr %32, align 4
  %105 = load float, ptr %15, align 4
  %106 = load float, ptr %21, align 4
  %107 = fsub float %105, %106
  store float %107, ptr %33, align 4
  %108 = load float, ptr %16, align 4
  %109 = load float, ptr %22, align 4
  %110 = fsub float %108, %109
  store float %110, ptr %34, align 4
  %111 = load float, ptr %17, align 4
  %112 = load float, ptr %23, align 4
  %113 = fsub float %111, %112
  store float %113, ptr %35, align 4
  %114 = load float, ptr %18, align 4
  %115 = load float, ptr %24, align 4
  %116 = fsub float %114, %115
  store float %116, ptr %36, align 4
  %117 = load ptr, ptr %11, align 8
  %118 = load ptr, ptr %12, align 8
  %119 = load float, ptr %25, align 4
  %120 = load float, ptr %26, align 4
  %121 = load float, ptr %27, align 4
  %122 = load float, ptr %28, align 4
  %123 = load float, ptr %29, align 4
  %124 = load float, ptr %30, align 4
  %125 = load float, ptr %31, align 4
  %126 = load float, ptr %32, align 4
  %127 = load float, ptr %33, align 4
  %128 = load float, ptr %34, align 4
  %129 = load float, ptr %35, align 4
  %130 = load float, ptr %36, align 4
  call void @OGLRenderer_FillAAParallelogramInnerOuter(ptr noundef %117, ptr noundef %118, float noundef %119, float noundef %120, float noundef %121, float noundef %122, float noundef %123, float noundef %124, float noundef %125, float noundef %126, float noundef %127, float noundef %128, float noundef %129, float noundef %130)
  br label %140

131:                                              ; preds = %89, %50
  %132 = load ptr, ptr %11, align 8
  %133 = load ptr, ptr %12, align 8
  %134 = load float, ptr %25, align 4
  %135 = load float, ptr %26, align 4
  %136 = load float, ptr %27, align 4
  %137 = load float, ptr %28, align 4
  %138 = load float, ptr %29, align 4
  %139 = load float, ptr %30, align 4
  call void @OGLRenderer_FillAAParallelogram(ptr noundef %132, ptr noundef %133, float noundef %134, float noundef %135, float noundef %136, float noundef %137, float noundef %138, float noundef %139)
  br label %140

140:                                              ; preds = %131, %92, %46, %39
  ret void
}