; Function Attrs: nounwind uwtable
define hidden void @OGLRenderer_DrawAAParallelogram(ptr noundef %0, ptr noundef %1, float noundef %2, float noundef %3, float noundef %4, float noundef %5, float noundef %6, float noundef %7, float noundef %8, float noundef %9) local_unnamed_addr #0 {
  %11 = icmp eq ptr %0, null
  %12 = icmp eq ptr %1, null
  %or.cond3 = or i1 %11, %12
  br i1 %or.cond3, label %38, label %13

13:                                               ; preds = %10
  %14 = fmul float %4, %8
  %15 = fmul float %5, %8
  %16 = fmul float %6, %9
  %17 = fmul float %7, %9
  %18 = fadd float %14, %16
  %19 = fmul float %18, 5.000000e-01
  %20 = fsub float %2, %19
  %21 = fadd float %15, %17
  %22 = fmul float %21, 5.000000e-01
  %23 = fsub float %3, %22
  %24 = fadd float %14, %4
  %25 = fadd float %15, %5
  %26 = fadd float %16, %6
  %27 = fadd float %17, %7
  %28 = fcmp olt float %8, 1.000000e+00
  %29 = fcmp olt float %9, 1.000000e+00
  %or.cond = and i1 %28, %29
  br i1 %or.cond, label %30, label %37

30:                                               ; preds = %13
  %31 = fadd float %19, %2
  %32 = fadd float %22, %3
  %33 = fsub float %4, %14
  %34 = fsub float %5, %15
  %35 = fsub float %6, %16
  %36 = fsub float %7, %17
  tail call void @OGLRenderer_FillAAParallelogramInnerOuter(ptr noundef nonnull %0, ptr noundef nonnull %1, float noundef %20, float noundef %23, float noundef %24, float noundef %25, float noundef %26, float noundef %27, float noundef %31, float noundef %32, float noundef %33, float noundef %34, float noundef %35, float noundef %36)
  br label %38

37:                                               ; preds = %13
  tail call void @OGLRenderer_FillAAParallelogram(ptr noundef nonnull %0, ptr noundef nonnull %1, float noundef %20, float noundef %23, float noundef %24, float noundef %25, float noundef %26, float noundef %27)
  br label %38

38:                                               ; preds = %10, %37, %30
  ret void
}